; Function Attrs: mustprogress nofree norecurse nosync nounwind willreturn memory(read, argmem: readwrite, inaccessiblemem: none) uwtable
define dso_local void @stbtt_GetGlyphBitmapBoxSubpixel(ptr noundef readonly captures(none) %0, i32 noundef %1, float noundef %2, float noundef %3, float noundef %4, float noundef %5, ptr noundef writeonly %6, ptr noundef writeonly %7, ptr noundef writeonly %8, ptr noundef writeonly %9) local_unnamed_addr #4 {
  %11 = alloca i32, align 4
  %12 = alloca i32, align 4
  %13 = alloca i32, align 4
  %14 = alloca i32, align 4
  store i32 0, ptr %11, align 4
  store i32 0, ptr %12, align 4
  %15 = call i32 @stbtt_GetGlyphBox(ptr noundef %0, i32 noundef %1, ptr noundef nonnull %11, ptr noundef nonnull %12, ptr noundef nonnull %13, ptr noundef nonnull %14)
  %.not = icmp eq i32 %15, 0
  %.not31 = icmp eq ptr %6, null
  br i1 %.not, label %16, label %23

16:                                               ; preds = %10
  br i1 %.not31, label %18, label %17

17:                                               ; preds = %16
  store i32 0, ptr %6, align 4
  br label %18

18:                                               ; preds = %17, %16
  %.not32 = icmp eq ptr %7, null
  br i1 %.not32, label %20, label %19

19:                                               ; preds = %18
  store i32 0, ptr %7, align 4
  br label %20

20:                                               ; preds = %19, %18
  %.not33 = icmp eq ptr %8, null
  br i1 %.not33, label %22, label %21

21:                                               ; preds = %20
  store i32 0, ptr %8, align 4
  br label %22

22:                                               ; preds = %21, %20
  %.not34 = icmp eq ptr %9, null
  br i1 %.not34, label %53, label %.sink.split

23:                                               ; preds = %10
  br i1 %.not31, label %30, label %24

24:                                               ; preds = %23
  %25 = load i32, ptr %11, align 4
  %26 = sitofp i32 %25 to float
  %27 = call float @llvm.fmuladd.f32(float %26, float %2, float %4)
  %28 = call noundef float @llvm.floor.f32(float %27)
  %29 = fptosi float %28 to i32
  store i32 %29, ptr %6, align 4
  br label %30

30:                                               ; preds = %24, %23
  %.not36 = icmp eq ptr %7, null
  br i1 %.not36, label %38, label %31

31:                                               ; preds = %30
  %32 = load i32, ptr %14, align 4
  %33 = sub nsw i32 0, %32
  %34 = sitofp i32 %33 to float
  %35 = call float @llvm.fmuladd.f32(float %34, float %3, float %5)
  %36 = call noundef float @llvm.floor.f32(float %35)
  %37 = fptosi float %36 to i32
  store i32 %37, ptr %7, align 4
  br label %38

38:                                               ; preds = %31, %30
  %.not37 = icmp eq ptr %8, null
  br i1 %.not37, label %45, label %39

39:                                               ; preds = %38
  %40 = load i32, ptr %13, align 4
  %41 = sitofp i32 %40 to float
  %42 = call float @llvm.fmuladd.f32(float %41, float %2, float %4)
  %43 = call noundef float @llvm.ceil.f32(float %42)
  %44 = fptosi float %43 to i32
  store i32 %44, ptr %8, align 4
  br label %45

45:                                               ; preds = %39, %38
  %.not38 = icmp eq ptr %9, null
  br i1 %.not38, label %53, label %46

46:                                               ; preds = %45
  %47 = load i32, ptr %12, align 4
  %48 = sub nsw i32 0, %47
  %49 = sitofp i32 %48 to float
  %50 = call float @llvm.fmuladd.f32(float %49, float %3, float %5)
  %51 = call noundef float @llvm.ceil.f32(float %50)
  %52 = fptosi float %51 to i32
  br label %.sink.split

.sink.split:                                      ; preds = %22, %46
  %.sink = phi i32 [ %52, %46 ], [ 0, %22 ]
  store i32 %.sink, ptr %9, align 4
  br label %53

53:                                               ; preds = %.sink.split, %45, %22
  ret void
}